Certificate:
    Data:
        Version: 3 (0x2)
        Serial Number:
            d7:4e:c7:30:5e:d1:59:e1
        Signature Algorithm: sha256WithRSAEncryption
        Issuer: C=CN, ST=Guangdong, L=Shenzhen, O=Zhenai, OU=Java, CN=HttpProxy
        Validity
            Not Before: Feb  1 09:55:02 2018 GMT
            Not After : Feb  1 09:55:02 2019 GMT
        Subject: C=CN, ST=Guangdong, L=Shenzhen, O=Zhenai, OU=Java, CN=HttpProxy
        Subject Public Key Info:
            Public Key Algorithm: rsaEncryption
            RSA Public Key: (512 bit)
                Modulus (512 bit):
                    00:c1:35:05:18:dd:07:03:07:bc:3e:ef:42:6c:08:
                    68:7c:1e:6c:59:25:ec:64:73:ab:af:09:bd:9e:a9:
                    a7:9a:0f:4e:56:d9:93:83:2e:73:1e:cc:4c:ed:b2:
                    42:93:f7:af:3a:92:02:eb:cc:d8:0d:16:e4:1a:1c:
                    46:a9:d6:39:2f
                Exponent: 65537 (0x10001)
        X509v3 extensions:
            X509v3 Subject Key Identifier: 
                F4:B3:33:F1:1D:6D:CD:A3:0C:3A:04:8C:9C:23:8B:6F:7F:E9:47:DA
            X509v3 Authority Key Identifier: 
                keyid:F4:B3:33:F1:1D:6D:CD:A3:0C:3A:04:8C:9C:23:8B:6F:7F:E9:47:DA
                DirName:/C=CN/ST=Guangdong/L=Shenzhen/O=Zhenai/OU=Java/CN=HttpProxy
                serial:D7:4E:C7:30:5E:D1:59:E1

            X509v3 Basic Constraints: 
                CA:TRUE
    Signature Algorithm: sha256WithRSAEncryption
        77:e4:2d:ba:f6:37:fe:b4:d0:91:48:4b:a5:e0:61:43:aa:db:
        c0:1f:b2:6f:fd:f0:ce:d9:59:d9:82:79:65:29:ee:bc:f4:be:
        94:41:d8:bb:38:cf:b7:06:53:d4:6b:75:a5:70:07:90:f7:4a:
        d3:e7:14:eb:86:e6:c4:70:a8:93
-----BEGIN CERTIFICATE-----
MIIClzCCAkGgAwIBAgIJANdOxzBe0VnhMA0GCSqGSIb3DQEBCwUAMGgxCzAJBgNV
BAYTAkNOMRIwEAYDVQQIEwlHdWFuZ2RvbmcxETAPBgNVBAcTCFNoZW56aGVuMQ8w
DQYDVQQKEwZaaGVuYWkxDTALBgNVBAsTBEphdmExEjAQBgNVBAMTCUh0dHBQcm94
eTAeFw0xODAyMDEwOTU1MDJaFw0xOTAyMDEwOTU1MDJaMGgxCzAJBgNVBAYTAkNO
MRIwEAYDVQQIEwlHdWFuZ2RvbmcxETAPBgNVBAcTCFNoZW56aGVuMQ8wDQYDVQQK
EwZaaGVuYWkxDTALBgNVBAsTBEphdmExEjAQBgNVBAMTCUh0dHBQcm94eTBcMA0G
CSqGSIb3DQEBAQUAA0sAMEgCQQDBNQUY3QcDB7w+70JsCGh8HmxZJexkc6uvCb2e
qaeaD05W2ZODLnMezEztskKT9686kgLrzNgNFuQaHEap1jkvAgMBAAGjgc0wgcow
HQYDVR0OBBYEFPSzM/Edbc2jDDoEjJwji29/6UfaMIGaBgNVHSMEgZIwgY+AFPSz
M/Edbc2jDDoEjJwji29/6UfaoWykajBoMQswCQYDVQQGEwJDTjESMBAGA1UECBMJ
R3Vhbmdkb25nMREwDwYDVQQHEwhTaGVuemhlbjEPMA0GA1UEChMGWmhlbmFpMQ0w
CwYDVQQLEwRKYXZhMRIwEAYDVQQDEwlIdHRwUHJveHmCCQDXTscwXtFZ4TAMBgNV
HRMEBTADAQH/MA0GCSqGSIb3DQEBCwUAA0EAd+QtuvY3/rTQkUhLpeBhQ6rbwB+y
b/3wztlZ2YJ5ZSnuvPS+lEHYuzjPtwZT1Gt1pXAHkPdK0+cU64bmxHCokw==
-----END CERTIFICATE-----
