Certificate:
    Data:
        Version: 3 (0x2)
        Serial Number:
            84:76:37:d0:cf:e8:64:99
        Signature Algorithm: sha1WithRSAEncryption
        Issuer: C=CN, ST=Guangdong, L=Shenzhen, O=Zhenai, OU=Java, CN=HttpProxy
        Validity
            Not Before: Feb  1 08:11:39 2018 GMT
            Not After : Mar  3 08:11:39 2018 GMT
        Subject: C=CN, ST=Guangdong, L=Shenzhen, O=Zhenai, OU=Java, CN=HttpProxy
        Subject Public Key Info:
            Public Key Algorithm: rsaEncryption
            RSA Public Key: (512 bit)
                Modulus (512 bit):
                    00:c1:35:05:18:dd:07:03:07:bc:3e:ef:42:6c:08:
                    68:7c:1e:6c:59:25:ec:64:73:ab:af:09:bd:9e:a9:
                    a7:9a:0f:4e:56:d9:93:83:2e:73:1e:cc:4c:ed:b2:
                    42:93:f7:af:3a:92:02:eb:cc:d8:0d:16:e4:1a:1c:
                    46:a9:d6:39:2f
                Exponent: 65537 (0x10001)
        X509v3 extensions:
            X509v3 Subject Key Identifier: 
                F4:B3:33:F1:1D:6D:CD:A3:0C:3A:04:8C:9C:23:8B:6F:7F:E9:47:DA
            X509v3 Authority Key Identifier: 
                keyid:F4:B3:33:F1:1D:6D:CD:A3:0C:3A:04:8C:9C:23:8B:6F:7F:E9:47:DA
                DirName:/C=CN/ST=Guangdong/L=Shenzhen/O=Zhenai/OU=Java/CN=HttpProxy
                serial:84:76:37:D0:CF:E8:64:99

            X509v3 Basic Constraints: 
                CA:TRUE
    Signature Algorithm: sha1WithRSAEncryption
        a3:9e:d1:95:d3:10:63:f8:8a:94:35:92:db:91:e2:5e:0c:c2:
        e6:84:f3:48:9f:2e:d3:79:03:f5:87:91:93:39:f2:c5:d0:e1:
        25:43:db:58:2a:59:c9:21:2d:c2:a9:ae:64:4d:fc:6f:0f:ca:
        13:8c:d2:f2:8e:4c:61:c9:26:71
-----BEGIN CERTIFICATE-----
MIIClzCCAkGgAwIBAgIJAIR2N9DP6GSZMA0GCSqGSIb3DQEBBQUAMGgxCzAJBgNV
BAYTAkNOMRIwEAYDVQQIEwlHdWFuZ2RvbmcxETAPBgNVBAcTCFNoZW56aGVuMQ8w
DQYDVQQKEwZaaGVuYWkxDTALBgNVBAsTBEphdmExEjAQBgNVBAMTCUh0dHBQcm94
eTAeFw0xODAyMDEwODExMzlaFw0xODAzMDMwODExMzlaMGgxCzAJBgNVBAYTAkNO
MRIwEAYDVQQIEwlHdWFuZ2RvbmcxETAPBgNVBAcTCFNoZW56aGVuMQ8wDQYDVQQK
EwZaaGVuYWkxDTALBgNVBAsTBEphdmExEjAQBgNVBAMTCUh0dHBQcm94eTBcMA0G
CSqGSIb3DQEBAQUAA0sAMEgCQQDBNQUY3QcDB7w+70JsCGh8HmxZJexkc6uvCb2e
qaeaD05W2ZODLnMezEztskKT9686kgLrzNgNFuQaHEap1jkvAgMBAAGjgc0wgcow
HQYDVR0OBBYEFPSzM/Edbc2jDDoEjJwji29/6UfaMIGaBgNVHSMEgZIwgY+AFPSz
M/Edbc2jDDoEjJwji29/6UfaoWykajBoMQswCQYDVQQGEwJDTjESMBAGA1UECBMJ
R3Vhbmdkb25nMREwDwYDVQQHEwhTaGVuemhlbjEPMA0GA1UEChMGWmhlbmFpMQ0w
CwYDVQQLEwRKYXZhMRIwEAYDVQQDEwlIdHRwUHJveHmCCQCEdjfQz+hkmTAMBgNV
HRMEBTADAQH/MA0GCSqGSIb3DQEBBQUAA0EAo57RldMQY/iKlDWS25HiXgzC5oTz
SJ8u03kD9YeRkznyxdDhJUPbWCpZySEtwqmuZE38bw/KE4zS8o5MYckmcQ==
-----END CERTIFICATE-----
