Certificate:
    Data:
        Version: 3 (0x2)
        Serial Number:
            ad:1b:04:63:2f:3a:3b:e1
        Signature Algorithm: sha256WithRSAEncryption
        Issuer: C=CN, ST=Guangdong, L=Shenzhen, O=Zhenai, OU=Java, CN=HttpProxy
        Validity
            Not Before: Feb  1 10:35:35 2018 GMT
            Not After : Feb  1 10:35:35 2019 GMT
        Subject: C=CN, ST=Guangdong, L=Shenzhen, O=Zhenai, OU=Java, CN=HttpProxy
        Subject Public Key Info:
            Public Key Algorithm: rsaEncryption
            RSA Public Key: (2048 bit)
                Modulus (2048 bit):
                    00:f2:16:67:d6:ea:7a:d8:58:b6:b5:dc:d7:7b:ed:
                    c1:aa:d6:fc:d3:dd:1c:97:1c:4c:74:9a:53:28:bc:
                    dc:d6:2c:d3:ba:93:3b:f4:63:f4:14:f4:97:5f:00:
                    b2:84:57:0f:3a:70:9c:8d:bf:70:26:58:4b:36:63:
                    1d:f4:cf:0a:3c:77:92:d5:f3:10:83:03:8c:3d:b0:
                    2f:ba:cb:2c:4c:a5:a6:3a:27:ac:99:e1:ba:62:7b:
                    f9:0c:68:af:ec:e2:ba:e1:54:13:1d:d3:e6:0e:02:
                    b7:29:00:16:ba:59:7e:7e:85:e6:44:2f:1c:3d:e7:
                    13:e2:e8:6e:e2:1b:d8:24:7c:76:43:ab:a2:4c:89:
                    c5:53:1a:2d:8b:b0:b6:eb:c4:b2:1a:7f:c5:1d:51:
                    42:9f:da:5d:37:06:c5:c1:4b:d1:cd:b5:a3:51:66:
                    82:8b:7c:eb:2e:c6:82:78:67:71:cb:a0:4c:21:3c:
                    b4:30:f2:5c:8c:95:56:9a:0d:9f:ff:9f:f9:24:c3:
                    d4:87:c2:fa:21:b5:cc:6c:ab:2a:d8:1f:73:cb:97:
                    16:cc:78:71:a8:34:68:9d:f0:2f:5b:df:55:0f:fa:
                    d6:43:d1:f7:22:2d:7b:62:3e:32:c2:d3:98:32:77:
                    b5:81:62:72:ab:38:0d:61:2d:d0:16:5d:85:6a:5e:
                    74:6d
                Exponent: 65537 (0x10001)
        X509v3 extensions:
            X509v3 Subject Key Identifier: 
                C8:FF:A3:A1:93:00:C0:BB:E1:3A:EE:F5:B1:EA:B5:F4:C2:E9:42:7C
            X509v3 Authority Key Identifier: 
                keyid:C8:FF:A3:A1:93:00:C0:BB:E1:3A:EE:F5:B1:EA:B5:F4:C2:E9:42:7C
                DirName:/C=CN/ST=Guangdong/L=Shenzhen/O=Zhenai/OU=Java/CN=HttpProxy
                serial:AD:1B:04:63:2F:3A:3B:E1

            X509v3 Basic Constraints: 
                CA:TRUE
    Signature Algorithm: sha256WithRSAEncryption
        da:18:16:4a:b2:20:52:4a:0c:0f:62:30:d7:5e:f4:70:e3:f1:
        2c:3b:14:a8:b0:88:1c:16:5c:91:d9:5c:32:98:db:21:ad:da:
        f0:26:49:29:68:df:d7:e4:e8:ae:c0:fa:c4:1b:51:bc:e4:4d:
        7f:36:e3:9d:2f:c9:44:15:8a:2f:be:48:82:01:4c:f1:af:65:
        06:b6:a6:d0:8d:c2:f3:9b:3b:2e:c0:11:74:dc:f3:4b:5a:27:
        c6:ac:54:45:8b:fb:10:5f:08:61:c5:ba:19:1a:db:2b:7d:16:
        05:b6:00:a7:28:ed:5c:a3:7e:e2:4a:da:1c:c5:38:46:98:64:
        e0:4b:8d:62:73:56:d7:7b:b0:33:47:13:aa:9e:79:fd:e3:36:
        76:fd:02:9f:6a:84:24:8c:b0:a1:d9:b3:df:ea:0f:93:d9:96:
        47:96:1e:37:12:04:d8:7b:41:af:1d:80:21:9d:49:05:90:6c:
        3b:a8:e3:99:42:f9:69:75:7a:01:1e:82:1c:5f:66:a9:f4:26:
        e7:58:47:29:f3:2a:d5:a4:4d:aa:41:9e:70:85:83:f1:bc:8c:
        18:f0:fe:13:db:6e:e6:72:72:82:19:9e:64:88:84:9d:d4:43:
        a6:a7:81:6c:17:99:b7:8e:be:ad:1b:e7:f4:de:2a:54:28:d0:
        40:b0:b8:42
-----BEGIN CERTIFICATE-----
MIIEITCCAwmgAwIBAgIJAK0bBGMvOjvhMA0GCSqGSIb3DQEBCwUAMGgxCzAJBgNV
BAYTAkNOMRIwEAYDVQQIEwlHdWFuZ2RvbmcxETAPBgNVBAcTCFNoZW56aGVuMQ8w
DQYDVQQKEwZaaGVuYWkxDTALBgNVBAsTBEphdmExEjAQBgNVBAMTCUh0dHBQcm94
eTAeFw0xODAyMDExMDM1MzVaFw0xOTAyMDExMDM1MzVaMGgxCzAJBgNVBAYTAkNO
MRIwEAYDVQQIEwlHdWFuZ2RvbmcxETAPBgNVBAcTCFNoZW56aGVuMQ8wDQYDVQQK
EwZaaGVuYWkxDTALBgNVBAsTBEphdmExEjAQBgNVBAMTCUh0dHBQcm94eTCCASIw
DQYJKoZIhvcNAQEBBQADggEPADCCAQoCggEBAPIWZ9bqethYtrXc13vtwarW/NPd
HJccTHSaUyi83NYs07qTO/Rj9BT0l18AsoRXDzpwnI2/cCZYSzZjHfTPCjx3ktXz
EIMDjD2wL7rLLEylpjonrJnhumJ7+Qxor+ziuuFUEx3T5g4CtykAFrpZfn6F5kQv
HD3nE+LobuIb2CR8dkOrokyJxVMaLYuwtuvEshp/xR1RQp/aXTcGxcFL0c21o1Fm
got86y7GgnhnccugTCE8tDDyXIyVVpoNn/+f+STD1IfC+iG1zGyrKtgfc8uXFsx4
cag0aJ3wL1vfVQ/61kPR9yIte2I+MsLTmDJ3tYFicqs4DWEt0BZdhWpedG0CAwEA
AaOBzTCByjAdBgNVHQ4EFgQUyP+joZMAwLvhOu71seq19MLpQnwwgZoGA1UdIwSB
kjCBj4AUyP+joZMAwLvhOu71seq19MLpQnyhbKRqMGgxCzAJBgNVBAYTAkNOMRIw
EAYDVQQIEwlHdWFuZ2RvbmcxETAPBgNVBAcTCFNoZW56aGVuMQ8wDQYDVQQKEwZa
aGVuYWkxDTALBgNVBAsTBEphdmExEjAQBgNVBAMTCUh0dHBQcm94eYIJAK0bBGMv
OjvhMAwGA1UdEwQFMAMBAf8wDQYJKoZIhvcNAQELBQADggEBANoYFkqyIFJKDA9i
MNde9HDj8Sw7FKiwiBwWXJHZXDKY2yGt2vAmSSlo39fk6K7A+sQbUbzkTX82450v
yUQVii++SIIBTPGvZQa2ptCNwvObOy7AEXTc80taJ8asVEWL+xBfCGHFuhka2yt9
FgW2AKco7VyjfuJK2hzFOEaYZOBLjWJzVtd7sDNHE6qeef3jNnb9Ap9qhCSMsKHZ
s9/qD5PZlkeWHjcSBNh7Qa8dgCGdSQWQbDuo45lC+Wl1egEeghxfZqn0JudYRynz
KtWkTapBnnCFg/G8jBjw/hPbbuZycoIZnmSIhJ3UQ6angWwXmbeOvq0b5/TeKlQo
0ECwuEI=
-----END CERTIFICATE-----
