Certificate:
    Data:
        Version: 1 (0x0)
        Serial Number:
            c8:89:e4:fe:a3:b9:f2:f1
        Signature Algorithm: sha1WithRSAEncryption
        Issuer: C=CN, ST=Guangdong Province, L=Shenzhen, O=Zhenai, OU=ZA, CN=jiangnenghua/emailAddress=jiangnenghua1992@gmail.com
        Validity
            Not Before: Jan 19 10:32:19 2018 GMT
            Not After : Jan 17 10:32:19 2028 GMT
        Subject: C=CN, ST=Guangdong Province, L=Shenzhen, O=Zhenai, OU=ZA, CN=jiangnenghua/emailAddress=jiangnenghua1992@gmail.com
        Subject Public Key Info:
            Public Key Algorithm: rsaEncryption
            RSA Public Key: (1024 bit)
                Modulus (1024 bit):
                    00:b9:33:69:e3:80:2f:38:74:b1:2f:30:73:47:12:
                    66:4c:86:d6:31:c3:b9:dc:2e:36:50:23:20:07:c8:
                    67:eb:b8:9a:93:92:c7:49:d7:a5:75:79:13:4d:de:
                    91:27:d7:b4:00:3a:4e:98:de:93:e3:c8:7f:fe:31:
                    e8:ab:da:22:bd:18:6c:81:2f:d6:2f:96:2d:1e:a3:
                    9c:4c:70:bb:f5:5e:62:de:2e:04:35:10:57:ad:46:
                    3e:a2:e2:34:ed:bd:a2:00:21:bd:2e:00:6d:d7:1c:
                    7a:a6:41:10:fa:fa:72:e7:a9:5e:44:7f:78:87:c9:
                    73:5f:a3:5d:98:ed:b8:db:6f
                Exponent: 65537 (0x10001)
    Signature Algorithm: sha1WithRSAEncryption
        96:63:dc:35:54:20:ca:2d:18:3e:5c:ba:d4:ad:d5:9b:22:77:
        0c:af:56:bf:3e:7c:0c:90:93:92:b3:92:86:46:7f:e4:84:7b:
        78:1b:f1:73:7a:e6:57:3c:5d:5a:07:7e:0c:b0:9f:6e:a6:3a:
        8f:9b:ab:db:18:4d:2a:60:99:aa:4c:a5:8b:23:4a:46:86:a0:
        89:27:bc:80:a1:fb:9b:94:19:c3:bb:e1:b1:67:75:4f:57:96:
        60:ac:a7:a1:4d:1e:3a:eb:b0:ed:70:19:42:5c:4a:30:e8:cf:
        0a:a2:6b:28:e1:53:49:47:01:d4:93:c1:33:4b:71:81:9e:f5:
        57:9d
-----BEGIN CERTIFICATE-----
MIICszCCAhwCCQDIieT+o7ny8TANBgkqhkiG9w0BAQUFADCBnTELMAkGA1UEBhMC
Q04xGzAZBgNVBAgTEkd1YW5nZG9uZyBQcm92aW5jZTERMA8GA1UEBxMIU2hlbnpo
ZW4xDzANBgNVBAoTBlpoZW5haTELMAkGA1UECxMCWkExFTATBgNVBAMTDGppYW5n
bmVuZ2h1YTEpMCcGCSqGSIb3DQEJARYaamlhbmduZW5naHVhMTk5MkBnbWFpbC5j
b20wHhcNMTgwMTE5MTAzMjE5WhcNMjgwMTE3MTAzMjE5WjCBnTELMAkGA1UEBhMC
Q04xGzAZBgNVBAgTEkd1YW5nZG9uZyBQcm92aW5jZTERMA8GA1UEBxMIU2hlbnpo
ZW4xDzANBgNVBAoTBlpoZW5haTELMAkGA1UECxMCWkExFTATBgNVBAMTDGppYW5n
bmVuZ2h1YTEpMCcGCSqGSIb3DQEJARYaamlhbmduZW5naHVhMTk5MkBnbWFpbC5j
b20wgZ8wDQYJKoZIhvcNAQEBBQADgY0AMIGJAoGBALkzaeOALzh0sS8wc0cSZkyG
1jHDudwuNlAjIAfIZ+u4mpOSx0nXpXV5E03ekSfXtAA6Tpjek+PIf/4x6KvaIr0Y
bIEv1i+WLR6jnExwu/VeYt4uBDUQV61GPqLiNO29ogAhvS4AbdcceqZBEPr6cuep
XkR/eIfJc1+jXZjtuNtvAgMBAAEwDQYJKoZIhvcNAQEFBQADgYEAlmPcNVQgyi0Y
Ply61K3VmyJ3DK9Wvz58DJCTkrOShkZ/5IR7eBvxc3rmVzxdWgd+DLCfbqY6j5ur
2xhNKmCZqkyliyNKRoagiSe8gKH7m5QZw7vhsWd1T1eWYKynoU0eOuuw7XAZQlxK
MOjPCqJrKOFTSUcB1JPBM0txgZ71V50=
-----END CERTIFICATE-----
